target datalayout = "e-m:e-p270:32:32-p271:32:32-p272:64:64-i64:64-i128:128-f80:128-n8:16:32:64-S128"
target triple = "x86_64-pc-linux-gnu"

%struct._object = type { %union.anon, ptr }
%union.anon = type { i64 }
%struct.PyVarObject = type { %struct._object, i64 }
%struct.PickleState = type { ptr, ptr, ptr, ptr, ptr, ptr, ptr, ptr, ptr, ptr, ptr, ptr, ptr, ptr, ptr, ptr, ptr, ptr, ptr }
%struct.anon = type { i32, i32 }
%struct.Py_buffer = type { ptr, ptr, i64, i64, i32, i32, ptr, ptr, ptr, ptr, ptr }
%struct.UnpicklerObject = type { %struct._object, ptr, ptr, i64, i64, ptr, ptr, %struct.Py_buffer, ptr, ptr, i64, i64, i64, ptr, ptr, ptr, ptr, ptr, ptr, ptr, ptr, i64, i64, i32, i32 }
%struct.Pdata = type { %struct.PyVarObject, ptr, i32, i64, i64 }

@.str.103 = private unnamed_addr constant [22 x i8] c"unexpected MARK found\00", align 1
@.str.104 = private unnamed_addr constant [27 x i8] c"unpickling stack underflow\00", align 1
@.str.123 = private unnamed_addr constant [33 x i8] c"odd number of items for SETITEMS\00", align 1

; Function Attrs: alwaysinline nounwind uwtable
define internal i32 @_Py_IsImmortal(ptr noundef %0) #4 {
  %2 = alloca ptr, align 8
  store ptr %0, ptr %2, align 8, !tbaa !3
  %3 = load ptr, ptr %2, align 8, !tbaa !3
  %4 = getelementptr inbounds nuw %struct._object, ptr %3, i32 0, i32 0
  %5 = getelementptr inbounds nuw %struct.anon, ptr %4, i32 0, i32 0
  %6 = load i32, ptr %5, align 8, !tbaa !63
  %7 = icmp slt i32 %6, 0
  %8 = zext i1 %7 to i32
  ret i32 %8
}

; Function Attrs: inlinehint nounwind uwtable
define internal void @Py_SET_SIZE(ptr noundef %0, i64 noundef %1) #3 {
  %3 = alloca ptr, align 8
  %4 = alloca i64, align 8
  store ptr %0, ptr %3, align 8, !tbaa !8
  store i64 %1, ptr %4, align 8, !tbaa !34
  %5 = load i64, ptr %4, align 8, !tbaa !34
  %6 = load ptr, ptr %3, align 8, !tbaa !8
  %7 = getelementptr inbounds nuw %struct.PyVarObject, ptr %6, i32 0, i32 1
  store i64 %5, ptr %7, align 8, !tbaa !40
  ret void
}

; Function Attrs: alwaysinline nounwind uwtable
define internal void @Py_DECREF(ptr noundef %0) #4 {
  %2 = alloca ptr, align 8
  store ptr %0, ptr %2, align 8, !tbaa !3
  %3 = load ptr, ptr %2, align 8, !tbaa !3
  %4 = call i32 @_Py_IsImmortal(ptr noundef %3)
  %5 = icmp ne i32 %4, 0
  br i1 %5, label %6, label %7

6:                                                ; preds = %1
  br label %16

7:                                                ; preds = %1
  %8 = load ptr, ptr %2, align 8, !tbaa !3
  %9 = getelementptr inbounds nuw %struct._object, ptr %8, i32 0, i32 0
  %10 = getelementptr inbounds nuw %struct.anon, ptr %9, i32 0, i32 0
  %11 = load i32, ptr %10, align 8, !tbaa !63
  %12 = add i32 %11, -1
  store i32 %12, ptr %10, align 8, !tbaa !63
  %13 = icmp eq i32 %12, 0
  br i1 %13, label %14, label %16

14:                                               ; preds = %7
  %15 = load ptr, ptr %2, align 8, !tbaa !3
  call void @_Py_Dealloc(ptr noundef %15)
  br label %16

16:                                               ; preds = %6, %14, %7
  ret void
}

; Function Attrs: nounwind uwtable
define internal i32 @Pdata_clear(ptr noundef %0, i64 noundef %1) #0 {
  %3 = alloca i32, align 4
  %4 = alloca ptr, align 8
  %5 = alloca i64, align 8
  %6 = alloca i64, align 8
  %7 = alloca i32, align 4
  %8 = alloca ptr, align 8
  %9 = alloca ptr, align 8
  store ptr %0, ptr %4, align 8, !tbaa !8
  store i64 %1, ptr %5, align 8, !tbaa !34
  call void @llvm.lifetime.start.p0(i64 8, ptr %6) #10
  %10 = load ptr, ptr %4, align 8, !tbaa !8
  %11 = call i64 @Py_SIZE(ptr noundef %10)
  store i64 %11, ptr %6, align 8, !tbaa !34
  %12 = load i64, ptr %5, align 8, !tbaa !34
  %13 = load i64, ptr %6, align 8, !tbaa !34
  %14 = icmp sge i64 %12, %13
  br i1 %14, label %15, label %16

15:                                               ; preds = %2
  store i32 0, ptr %3, align 4
  store i32 1, ptr %7, align 4
  br label %42

16:                                               ; preds = %2
  br label %17

17:                                               ; preds = %38, %16
  %18 = load i64, ptr %6, align 8, !tbaa !34
  %19 = add i64 %18, -1
  store i64 %19, ptr %6, align 8, !tbaa !34
  %20 = load i64, ptr %5, align 8, !tbaa !34
  %21 = icmp sge i64 %19, %20
  br i1 %21, label %22, label %39

22:                                               ; preds = %17
  br label %23

23:                                               ; preds = %22
  call void @llvm.lifetime.start.p0(i64 8, ptr %8) #10
  %24 = load ptr, ptr %4, align 8, !tbaa !8
  %25 = getelementptr inbounds nuw %struct.Pdata, ptr %24, i32 0, i32 1
  %26 = load ptr, ptr %25, align 8, !tbaa !186
  %27 = load i64, ptr %6, align 8, !tbaa !34
  %28 = getelementptr ptr, ptr %26, i64 %27
  store ptr %28, ptr %8, align 8, !tbaa !32
  call void @llvm.lifetime.start.p0(i64 8, ptr %9) #10
  %29 = load ptr, ptr %8, align 8, !tbaa !32
  %30 = load ptr, ptr %29, align 8, !tbaa !3
  store ptr %30, ptr %9, align 8, !tbaa !3
  %31 = load ptr, ptr %9, align 8, !tbaa !3
  %32 = icmp ne ptr %31, null
  br i1 %32, label %33, label %36

33:                                               ; preds = %23
  %34 = load ptr, ptr %8, align 8, !tbaa !32
  store ptr null, ptr %34, align 8, !tbaa !3
  %35 = load ptr, ptr %9, align 8, !tbaa !3
  call void @Py_DECREF(ptr noundef %35)
  br label %36

36:                                               ; preds = %33, %23
  call void @llvm.lifetime.end.p0(i64 8, ptr %9) #10
  call void @llvm.lifetime.end.p0(i64 8, ptr %8) #10
  br label %37

37:                                               ; preds = %36
  br label %38

38:                                               ; preds = %37
  br label %17, !llvm.loop !187

39:                                               ; preds = %17
  %40 = load ptr, ptr %4, align 8, !tbaa !8
  %41 = load i64, ptr %5, align 8, !tbaa !34
  call void @Py_SET_SIZE(ptr noundef %40, i64 noundef %41)
  store i32 0, ptr %3, align 4
  store i32 1, ptr %7, align 4
  br label %42

42:                                               ; preds = %39, %15
  call void @llvm.lifetime.end.p0(i64 8, ptr %6) #10
  %43 = load i32, ptr %3, align 4
  ret i32 %43
}

; Function Attrs: nounwind uwtable
define internal i32 @Pdata_stack_underflow(ptr noundef %0, ptr noundef %1) #0 {
  %3 = alloca ptr, align 8
  %4 = alloca ptr, align 8
  store ptr %0, ptr %3, align 8, !tbaa !8
  store ptr %1, ptr %4, align 8, !tbaa !8
  %5 = load ptr, ptr %3, align 8, !tbaa !8
  %6 = getelementptr inbounds nuw %struct.PickleState, ptr %5, i32 0, i32 2
  %7 = load ptr, ptr %6, align 8, !tbaa !15
  %8 = load ptr, ptr %4, align 8, !tbaa !8
  %9 = getelementptr inbounds nuw %struct.Pdata, ptr %8, i32 0, i32 2
  %10 = load i32, ptr %9, align 8, !tbaa !182
  %11 = icmp ne i32 %10, 0
  %12 = select i1 %11, ptr @.str.103, ptr @.str.104
  call void @PyErr_SetString(ptr noundef %7, ptr noundef %12)
  ret i32 -1
}

; Function Attrs: inlinehint nounwind uwtable
define internal i64 @Py_SIZE(ptr noundef %0) #3 {
  %2 = alloca ptr, align 8
  store ptr %0, ptr %2, align 8, !tbaa !3
  %3 = load ptr, ptr %2, align 8, !tbaa !3
  %4 = getelementptr inbounds nuw %struct.PyVarObject, ptr %3, i32 0, i32 1
  %5 = load i64, ptr %4, align 8, !tbaa !40
  ret i64 %5
}

; Function Attrs: nounwind uwtable
define internal i32 @do_setitems(ptr noundef %0, ptr noundef %1, i64 noundef %2) #0 {
  %4 = alloca i32, align 4
  %5 = alloca ptr, align 8
  %6 = alloca ptr, align 8
  %7 = alloca i64, align 8
  %8 = alloca ptr, align 8
  %9 = alloca ptr, align 8
  %10 = alloca ptr, align 8
  %11 = alloca i64, align 8
  %12 = alloca i64, align 8
  %13 = alloca i32, align 4
  %14 = alloca i32, align 4
  store ptr %0, ptr %5, align 8, !tbaa !8
  store ptr %1, ptr %6, align 8, !tbaa !156
  store i64 %2, ptr %7, align 8, !tbaa !34
  call void @llvm.lifetime.start.p0(i64 8, ptr %8) #10
  call void @llvm.lifetime.start.p0(i64 8, ptr %9) #10
  call void @llvm.lifetime.start.p0(i64 8, ptr %10) #10
  call void @llvm.lifetime.start.p0(i64 8, ptr %11) #10
  call void @llvm.lifetime.start.p0(i64 8, ptr %12) #10
  call void @llvm.lifetime.start.p0(i64 4, ptr %13) #10
  store i32 0, ptr %13, align 4, !tbaa !12
  %15 = load ptr, ptr %6, align 8, !tbaa !156
  %16 = getelementptr inbounds nuw %struct.UnpicklerObject, ptr %15, i32 0, i32 1
  %17 = load ptr, ptr %16, align 8, !tbaa !160
  %18 = call i64 @Py_SIZE(ptr noundef %17)
  store i64 %18, ptr %11, align 8, !tbaa !34
  %19 = load i64, ptr %7, align 8, !tbaa !34
  %20 = load i64, ptr %11, align 8, !tbaa !34
  %21 = icmp sgt i64 %19, %20
  br i1 %21, label %30, label %22

22:                                               ; preds = %3
  %23 = load i64, ptr %7, align 8, !tbaa !34
  %24 = load ptr, ptr %6, align 8, !tbaa !156
  %25 = getelementptr inbounds nuw %struct.UnpicklerObject, ptr %24, i32 0, i32 1
  %26 = load ptr, ptr %25, align 8, !tbaa !160
  %27 = getelementptr inbounds nuw %struct.Pdata, ptr %26, i32 0, i32 3
  %28 = load i64, ptr %27, align 8, !tbaa !184
  %29 = icmp sle i64 %23, %28
  br i1 %29, label %30, label %36

30:                                               ; preds = %22, %3
  %31 = load ptr, ptr %5, align 8, !tbaa !8
  %32 = load ptr, ptr %6, align 8, !tbaa !156
  %33 = getelementptr inbounds nuw %struct.UnpicklerObject, ptr %32, i32 0, i32 1
  %34 = load ptr, ptr %33, align 8, !tbaa !160
  %35 = call i32 @Pdata_stack_underflow(ptr noundef %31, ptr noundef %34)
  store i32 %35, ptr %4, align 4
  store i32 1, ptr %14, align 4
  br label %102

36:                                               ; preds = %22
  %37 = load i64, ptr %11, align 8, !tbaa !34
  %38 = load i64, ptr %7, align 8, !tbaa !34
  %39 = icmp eq i64 %37, %38
  br i1 %39, label %40, label %41

40:                                               ; preds = %36
  store i32 0, ptr %4, align 4
  store i32 1, ptr %14, align 4
  br label %102

41:                                               ; preds = %36
  %42 = load i64, ptr %11, align 8, !tbaa !34
  %43 = load i64, ptr %7, align 8, !tbaa !34
  %44 = sub i64 %42, %43
  %45 = srem i64 %44, 2
  %46 = icmp ne i64 %45, 0
  br i1 %46, label %47, label %51

47:                                               ; preds = %41
  %48 = load ptr, ptr %5, align 8, !tbaa !8
  %49 = getelementptr inbounds nuw %struct.PickleState, ptr %48, i32 0, i32 2
  %50 = load ptr, ptr %49, align 8, !tbaa !15
  call void @PyErr_SetString(ptr noundef %50, ptr noundef @.str.123)
  store i32 -1, ptr %4, align 4
  store i32 1, ptr %14, align 4
  br label %102

51:                                               ; preds = %41
  %52 = load ptr, ptr %6, align 8, !tbaa !156
  %53 = getelementptr inbounds nuw %struct.UnpicklerObject, ptr %52, i32 0, i32 1
  %54 = load ptr, ptr %53, align 8, !tbaa !160
  %55 = getelementptr inbounds nuw %struct.Pdata, ptr %54, i32 0, i32 1
  %56 = load ptr, ptr %55, align 8, !tbaa !186
  %57 = load i64, ptr %7, align 8, !tbaa !34
  %58 = sub i64 %57, 1
  %59 = getelementptr ptr, ptr %56, i64 %58
  %60 = load ptr, ptr %59, align 8, !tbaa !3
  store ptr %60, ptr %10, align 8, !tbaa !3
  %61 = load i64, ptr %7, align 8, !tbaa !34
  %62 = add i64 %61, 1
  store i64 %62, ptr %12, align 8, !tbaa !34
  br label %63

63:                                               ; preds = %92, %51
  %64 = load i64, ptr %12, align 8, !tbaa !34
  %65 = load i64, ptr %11, align 8, !tbaa !34
  %66 = icmp slt i64 %64, %65
  br i1 %66, label %67, label %95

67:                                               ; preds = %63
  %68 = load ptr, ptr %6, align 8, !tbaa !156
  %69 = getelementptr inbounds nuw %struct.UnpicklerObject, ptr %68, i32 0, i32 1
  %70 = load ptr, ptr %69, align 8, !tbaa !160
  %71 = getelementptr inbounds nuw %struct.Pdata, ptr %70, i32 0, i32 1
  %72 = load ptr, ptr %71, align 8, !tbaa !186
  %73 = load i64, ptr %12, align 8, !tbaa !34
  %74 = sub i64 %73, 1
  %75 = getelementptr ptr, ptr %72, i64 %74
  %76 = load ptr, ptr %75, align 8, !tbaa !3
  store ptr %76, ptr %9, align 8, !tbaa !3
  %77 = load ptr, ptr %6, align 8, !tbaa !156
  %78 = getelementptr inbounds nuw %struct.UnpicklerObject, ptr %77, i32 0, i32 1
  %79 = load ptr, ptr %78, align 8, !tbaa !160
  %80 = getelementptr inbounds nuw %struct.Pdata, ptr %79, i32 0, i32 1
  %81 = load ptr, ptr %80, align 8, !tbaa !186
  %82 = load i64, ptr %12, align 8, !tbaa !34
  %83 = getelementptr ptr, ptr %81, i64 %82
  %84 = load ptr, ptr %83, align 8, !tbaa !3
  store ptr %84, ptr %8, align 8, !tbaa !3
  %85 = load ptr, ptr %10, align 8, !tbaa !3
  %86 = load ptr, ptr %9, align 8, !tbaa !3
  %87 = load ptr, ptr %8, align 8, !tbaa !3
  %88 = call i32 @PyObject_SetItem(ptr noundef %85, ptr noundef %86, ptr noundef %87)
  %89 = icmp slt i32 %88, 0
  br i1 %89, label %90, label %91

90:                                               ; preds = %67
  store i32 -1, ptr %13, align 4, !tbaa !12
  br label %95

91:                                               ; preds = %67
  br label %92

92:                                               ; preds = %91
  %93 = load i64, ptr %12, align 8, !tbaa !34
  %94 = add i64 %93, 2
  store i64 %94, ptr %12, align 8, !tbaa !34
  br label %63, !llvm.loop !207

95:                                               ; preds = %90, %63
  %96 = load ptr, ptr %6, align 8, !tbaa !156
  %97 = getelementptr inbounds nuw %struct.UnpicklerObject, ptr %96, i32 0, i32 1
  %98 = load ptr, ptr %97, align 8, !tbaa !160
  %99 = load i64, ptr %7, align 8, !tbaa !34
  %100 = call i32 @Pdata_clear(ptr noundef %98, i64 noundef %99)
  %101 = load i32, ptr %13, align 4, !tbaa !12
  store i32 %101, ptr %4, align 4
  store i32 1, ptr %14, align 4
  br label %102

102:                                              ; preds = %95, %47, %40, %30
  call void @llvm.lifetime.end.p0(i64 4, ptr %13) #10
  call void @llvm.lifetime.end.p0(i64 8, ptr %12) #10
  call void @llvm.lifetime.end.p0(i64 8, ptr %11) #10
  call void @llvm.lifetime.end.p0(i64 8, ptr %10) #10
  call void @llvm.lifetime.end.p0(i64 8, ptr %9) #10
  call void @llvm.lifetime.end.p0(i64 8, ptr %8) #10
  %103 = load i32, ptr %4, align 4
  ret i32 %103
}