; Function Attrs: nounwind uwtable
define internal fastcc range(i32 -1, 1) i32 @do_setitems(ptr noundef readonly captures(none) %0, ptr noundef readonly captures(none) %1, i64 noundef %2) unnamed_addr #0 {
  %4 = getelementptr inbounds nuw i8, ptr %1, i64 16
  %5 = load ptr, ptr %4, align 8, !tbaa !160
  %6 = getelementptr i8, ptr %5, i64 16
  %.val = load i64, ptr %6, align 8, !tbaa !32
  %7 = icmp sgt i64 %2, %.val
  br i1 %7, label %11, label %8

8:                                                ; preds = %3
  %9 = getelementptr inbounds nuw i8, ptr %5, i64 40
  %10 = load i64, ptr %9, align 8, !tbaa !157
  %.not = icmp sgt i64 %2, %10
  br i1 %.not, label %15, label %11

11:                                               ; preds = %8, %3
  %12 = getelementptr i8, ptr %0, i64 16
  %.val33 = load ptr, ptr %12, align 8, !tbaa !15
  %13 = getelementptr i8, ptr %5, i64 32
  %.val34 = load i32, ptr %13, align 8, !tbaa !155
  %.not.i = icmp eq i32 %.val34, 0
  %14 = select i1 %.not.i, ptr @.str.104, ptr @.str.103
  tail call void @PyErr_SetString(ptr noundef %.val33, ptr noundef nonnull %14) #13
  br label %Pdata_clear.exit

15:                                               ; preds = %8
  %16 = icmp eq i64 %.val, %2
  br i1 %16, label %Pdata_clear.exit, label %17

17:                                               ; preds = %15
  %18 = sub i64 %.val, %2
  %19 = and i64 %18, 1
  %.not32 = icmp eq i64 %19, 0
  br i1 %.not32, label %23, label %20

20:                                               ; preds = %17
  %21 = getelementptr inbounds nuw i8, ptr %0, i64 16
  %22 = load ptr, ptr %21, align 8, !tbaa !15
  tail call void @PyErr_SetString(ptr noundef %22, ptr noundef nonnull @.str.123) #13
  br label %Pdata_clear.exit

23:                                               ; preds = %17
  %24 = getelementptr inbounds nuw i8, ptr %5, i64 24
  %25 = load ptr, ptr %24, align 8, !tbaa !159
  %26 = getelementptr ptr, ptr %25, i64 %2
  %27 = getelementptr i8, ptr %26, i64 -8
  %28 = load ptr, ptr %27, align 8, !tbaa !35
  %29 = add i64 %2, 1
  %30 = icmp slt i64 %29, %.val
  br i1 %30, label %.lr.ph, label %._crit_edge

31:                                               ; preds = %.lr.ph
  %32 = add i64 %.02836, 2
  %33 = icmp slt i64 %32, %.val
  br i1 %33, label %.lr.ph, label %._crit_edge.loopexit, !llvm.loop !187

.lr.ph:                                           ; preds = %23, %31
  %.02836 = phi i64 [ %32, %31 ], [ %29, %23 ]
  %34 = load ptr, ptr %4, align 8, !tbaa !160
  %35 = getelementptr inbounds nuw i8, ptr %34, i64 24
  %36 = load ptr, ptr %35, align 8, !tbaa !159
  %37 = getelementptr ptr, ptr %36, i64 %.02836
  %38 = getelementptr i8, ptr %37, i64 -8
  %39 = load ptr, ptr %38, align 8, !tbaa !35
  %40 = load ptr, ptr %37, align 8, !tbaa !35
  %41 = tail call i32 @PyObject_SetItem(ptr noundef %28, ptr noundef %39, ptr noundef %40) #13
  %42 = icmp slt i32 %41, 0
  br i1 %42, label %._crit_edge.loopexit, label %31

._crit_edge.loopexit:                             ; preds = %.lr.ph, %31
  %.0.ph = phi i32 [ 0, %31 ], [ -1, %.lr.ph ]
  %.pre = load ptr, ptr %4, align 8, !tbaa !160
  %.phi.trans.insert = getelementptr i8, ptr %.pre, i64 16
  %.val.i.pre = load i64, ptr %.phi.trans.insert, align 8, !tbaa !32
  br label %._crit_edge

._crit_edge:                                      ; preds = %._crit_edge.loopexit, %23
  %.val.i = phi i64 [ %.val, %23 ], [ %.val.i.pre, %._crit_edge.loopexit ]
  %43 = phi ptr [ %5, %23 ], [ %.pre, %._crit_edge.loopexit ]
  %.0 = phi i32 [ 0, %23 ], [ %.0.ph, %._crit_edge.loopexit ]
  %44 = getelementptr i8, ptr %43, i64 16
  %.not.i35 = icmp slt i64 %2, %.val.i
  br i1 %.not.i35, label %.preheader.i, label %Pdata_clear.exit

.preheader.i:                                     ; preds = %._crit_edge
  %45 = add nsw i64 %.val.i, -1
  %46 = getelementptr inbounds nuw i8, ptr %43, i64 24
  br label %47

47:                                               ; preds = %Py_DECREF.exit.i, %.preheader.i
  %48 = phi i64 [ %45, %.preheader.i ], [ %58, %Py_DECREF.exit.i ]
  %49 = load ptr, ptr %46, align 8, !tbaa !159
  %50 = getelementptr ptr, ptr %49, i64 %48
  %51 = load ptr, ptr %50, align 8, !tbaa !35
  %.not18.i = icmp eq ptr %51, null
  br i1 %.not18.i, label %Py_DECREF.exit.i, label %52

52:                                               ; preds = %47
  store ptr null, ptr %50, align 8, !tbaa !35
  %53 = load i32, ptr %51, align 8, !tbaa !42
  %.not.i.i = icmp sgt i32 %53, -1
  br i1 %.not.i.i, label %54, label %Py_DECREF.exit.i

54:                                               ; preds = %52
  %55 = add nsw i32 %53, -1
  store i32 %55, ptr %51, align 8, !tbaa !42
  %56 = icmp eq i32 %55, 0
  br i1 %56, label %57, label %Py_DECREF.exit.i

57:                                               ; preds = %54
  tail call void @_Py_Dealloc(ptr noundef nonnull %51) #13
  br label %Py_DECREF.exit.i

Py_DECREF.exit.i:                                 ; preds = %57, %54, %52, %47
  %58 = add i64 %48, -1
  %.not17.i = icmp slt i64 %58, %2
  br i1 %.not17.i, label %._crit_edge.i, label %47, !llvm.loop !167

._crit_edge.i:                                    ; preds = %Py_DECREF.exit.i
  store i64 %2, ptr %44, align 8, !tbaa !32
  br label %Pdata_clear.exit

Pdata_clear.exit:                                 ; preds = %._crit_edge.i, %._crit_edge, %15, %20, %11
  %.029 = phi i32 [ -1, %11 ], [ -1, %20 ], [ 0, %15 ], [ %.0, %._crit_edge ], [ %.0, %._crit_edge.i ]
  ret i32 %.029
}